target datalayout = "e-m:e-p270:32:32-p271:32:32-p272:64:64-i64:64-i128:128-f80:128-n8:16:32:64-S128"
target triple = "x86_64-pc-linux-gnu"

; Function Attrs: mustprogress nounwind uwtable
define hidden void @_ZN5ceres8internal15InvalidateArrayElPd(i64 noundef %0, ptr noundef %1) #2 {
  %3 = alloca i64, align 8
  %4 = alloca ptr, align 8
  %5 = alloca i64, align 8
  store i64 %0, ptr %3, align 8, !tbaa !3
  store ptr %1, ptr %4, align 8, !tbaa !7
  %6 = load ptr, ptr %4, align 8, !tbaa !7
  %7 = icmp ne ptr %6, null
  br i1 %7, label %8, label %22

8:                                                ; preds = %2
  call void @llvm.lifetime.start.p0(i64 8, ptr %5) #15
  store i64 0, ptr %5, align 8, !tbaa !3
  br label %9

9:                                                ; preds = %18, %8
  %10 = load i64, ptr %5, align 8, !tbaa !3
  %11 = load i64, ptr %3, align 8, !tbaa !3
  %12 = icmp slt i64 %10, %11
  br i1 %12, label %14, label %13

13:                                               ; preds = %9
  call void @llvm.lifetime.end.p0(i64 8, ptr %5) #15
  br label %21

14:                                               ; preds = %9
  %15 = load ptr, ptr %4, align 8, !tbaa !7
  %16 = load i64, ptr %5, align 8, !tbaa !3
  %17 = getelementptr inbounds double, ptr %15, i64 %16
  store double 1.000000e+302, ptr %17, align 8, !tbaa !10
  br label %18

18:                                               ; preds = %14
  %19 = load i64, ptr %5, align 8, !tbaa !3
  %20 = add nsw i64 %19, 1
  store i64 %20, ptr %5, align 8, !tbaa !3
  br label %9, !llvm.loop !15

21:                                               ; preds = %13
  br label %22

22:                                               ; preds = %21, %2
  ret void
}