; Function Attrs: mustprogress nofree norecurse nosync nounwind memory(argmem: write) uwtable
define hidden void @_ZN5ceres8internal15InvalidateArrayElPd(i64 noundef %0, ptr noundef writeonly captures(address_is_null) %1) local_unnamed_addr #2 {
  %.not = icmp ne ptr %1, null
  %3 = icmp sgt i64 %0, 0
  %or.cond = and i1 %.not, %3
  br i1 %or.cond, label %.lr.ph, label %.loopexit

.lr.ph:                                           ; preds = %2, %.lr.ph
  %.06 = phi i64 [ %5, %.lr.ph ], [ 0, %2 ]
  %4 = getelementptr inbounds nuw double, ptr %1, i64 %.06
  store double 1.000000e+302, ptr %4, align 8, !tbaa !3
  %5 = add nuw nsw i64 %.06, 1
  %exitcond.not = icmp eq i64 %5, %0
  br i1 %exitcond.not, label %.loopexit, label %.lr.ph, !llvm.loop !10

.loopexit:                                        ; preds = %.lr.ph, %2
  ret void
}